target datalayout = "e-m:e-p270:32:32-p271:32:32-p272:64:64-i64:64-i128:128-f80:128-n8:16:32:64-S128"
target triple = "x86_64-pc-linux-gnu"

%struct.H5T_t = type { %struct.H5O_shared_t, ptr, %struct.H5O_loc_t, %struct.H5G_name_t, ptr }
%struct.H5O_shared_t = type { i32, ptr, i32, %union.anon }
%union.anon = type { %struct.H5O_mesg_loc_t }
%struct.H5O_mesg_loc_t = type { i32, i64 }
%struct.H5O_loc_t = type { ptr, i64, i8 }
%struct.H5G_name_t = type { ptr, ptr, i32 }

@.str.2 = private unnamed_addr constant [97 x i8] c"generated/home/dtcxzyw/WorkSpace/Projects/compilers/llvm-opt-benchmark/bench/hdf5/hdf5/src/H5T.c\00", align 1
@H5E_DATATYPE_g = external global i64, align 8
@H5P_LST_DATASET_XFER_ID_g = external global i64, align 8
@H5E_CANTDEC_g = external global i64, align 8
@H5E_CLOSEERROR_g = external global i64, align 8
@.str.326 = private unnamed_addr constant [25 x i8] c"unable to close datatype\00", align 1
@H5E_ATTR_g = external global i64, align 8
@.str.327 = private unnamed_addr constant [26 x i8] c"unable to free VOL object\00", align 1
@__func__.H5T__close_cb = private unnamed_addr constant [14 x i8] c"H5T__close_cb\00", align 1

; Function Attrs: nounwind uwtable
define internal i32 @H5T__close_cb(ptr noundef %0, ptr noundef %1) #0 {
  %3 = alloca ptr, align 8
  %4 = alloca ptr, align 8
  %5 = alloca i32, align 4
  %6 = alloca i8, align 1
  store ptr %0, ptr %3, align 8
  store ptr %1, ptr %4, align 8
  store i32 0, ptr %5, align 4
  store i8 0, ptr %6, align 1
  %7 = load ptr, ptr %3, align 8
  %8 = getelementptr inbounds %struct.H5T_t, ptr %7, i32 0, i32 4
  %9 = load ptr, ptr %8, align 8
  %10 = icmp ne ptr null, %9
  br i1 %10, label %11, label %58

11:                                               ; preds = %2
  %12 = load ptr, ptr %3, align 8
  %13 = getelementptr inbounds %struct.H5T_t, ptr %12, i32 0, i32 4
  %14 = load ptr, ptr %13, align 8
  %15 = load i64, ptr @H5P_LST_DATASET_XFER_ID_g, align 8
  %16 = load ptr, ptr %4, align 8
  %17 = call i32 @H5VL_datatype_close(ptr noundef %14, i64 noundef %15, ptr noundef %16)
  %18 = icmp slt i32 %17, 0
  br i1 %18, label %19, label %34

19:                                               ; preds = %11
  br label %20

20:                                               ; preds = %19
  br label %21

21:                                               ; preds = %20
  br label %22

22:                                               ; preds = %21
  %23 = load i64, ptr @H5E_DATATYPE_g, align 8
  %24 = load i64, ptr @H5E_CLOSEERROR_g, align 8
  %25 = call i32 (ptr, ptr, i32, i64, i64, ptr, ...) @H5E_printf_stack(ptr noundef @.str.2, ptr noundef @__func__.H5T__close_cb, i32 noundef 1883, i64 noundef %23, i64 noundef %24, ptr noundef @.str.326)
  br label %26

26:                                               ; preds = %22
  store i8 1, ptr %6, align 1
  %27 = load i8, ptr %6, align 1
  %28 = trunc i8 %27 to i1
  %29 = zext i1 %28 to i8
  store i8 %29, ptr %6, align 1
  br label %30

30:                                               ; preds = %26
  br label %31

31:                                               ; preds = %30
  store i32 -1, ptr %5, align 4
  br label %78

32:                                               ; No predecessors!
  br label %33

33:                                               ; preds = %32
  br label %34

34:                                               ; preds = %33, %11
  %35 = load ptr, ptr %3, align 8
  %36 = getelementptr inbounds %struct.H5T_t, ptr %35, i32 0, i32 4
  %37 = load ptr, ptr %36, align 8
  %38 = call i32 @H5VL_free_object(ptr noundef %37)
  %39 = icmp slt i32 %38, 0
  br i1 %39, label %40, label %55

40:                                               ; preds = %34
  br label %41

41:                                               ; preds = %40
  br label %42

42:                                               ; preds = %41
  br label %43

43:                                               ; preds = %42
  %44 = load i64, ptr @H5E_ATTR_g, align 8
  %45 = load i64, ptr @H5E_CANTDEC_g, align 8
  %46 = call i32 (ptr, ptr, i32, i64, i64, ptr, ...) @H5E_printf_stack(ptr noundef @.str.2, ptr noundef @__func__.H5T__close_cb, i32 noundef 1887, i64 noundef %44, i64 noundef %45, ptr noundef @.str.327)
  br label %47

47:                                               ; preds = %43
  store i8 1, ptr %6, align 1
  %48 = load i8, ptr %6, align 1
  %49 = trunc i8 %48 to i1
  %50 = zext i1 %49 to i8
  store i8 %50, ptr %6, align 1
  br label %51

51:                                               ; preds = %47
  br label %52

52:                                               ; preds = %51
  store i32 -1, ptr %5, align 4
  br label %78

53:                                               ; No predecessors!
  br label %54

54:                                               ; preds = %53
  br label %55

55:                                               ; preds = %54, %34
  %56 = load ptr, ptr %3, align 8
  %57 = getelementptr inbounds %struct.H5T_t, ptr %56, i32 0, i32 4
  store ptr null, ptr %57, align 8
  br label %58

58:                                               ; preds = %55, %2
  %59 = load ptr, ptr %3, align 8
  %60 = call i32 @H5T_close(ptr noundef %59)
  %61 = icmp slt i32 %60, 0
  br i1 %61, label %62, label %77

62:                                               ; preds = %58
  br label %63

63:                                               ; preds = %62
  br label %64

64:                                               ; preds = %63
  br label %65

65:                                               ; preds = %64
  %66 = load i64, ptr @H5E_DATATYPE_g, align 8
  %67 = load i64, ptr @H5E_CLOSEERROR_g, align 8
  %68 = call i32 (ptr, ptr, i32, i64, i64, ptr, ...) @H5E_printf_stack(ptr noundef @.str.2, ptr noundef @__func__.H5T__close_cb, i32 noundef 1893, i64 noundef %66, i64 noundef %67, ptr noundef @.str.326)
  br label %69

69:                                               ; preds = %65
  store i8 1, ptr %6, align 1
  %70 = load i8, ptr %6, align 1
  %71 = trunc i8 %70 to i1
  %72 = zext i1 %71 to i8
  store i8 %72, ptr %6, align 1
  br label %73

73:                                               ; preds = %69
  br label %74

74:                                               ; preds = %73
  store i32 -1, ptr %5, align 4
  br label %78

75:                                               ; No predecessors!
  br label %76

76:                                               ; preds = %75
  br label %77

77:                                               ; preds = %76, %58
  br label %78

78:                                               ; preds = %77, %74, %52, %31
  %79 = load i32, ptr %5, align 4
  ret i32 %79
}