; Function Attrs: nounwind uwtable
define internal range(i32 -1, 1) i32 @H5T__close_cb(ptr noundef %0, ptr noundef %1) #0 {
  %3 = getelementptr inbounds i8, ptr %0, i64 96
  %4 = load ptr, ptr %3, align 8
  %.not = icmp eq ptr %4, null
  br i1 %.not, label %22, label %5

5:                                                ; preds = %2
  %6 = load i64, ptr @H5P_LST_DATASET_XFER_ID_g, align 8
  %7 = tail call i32 @H5VL_datatype_close(ptr noundef nonnull %4, i64 noundef %6, ptr noundef %1) #17
  %8 = icmp slt i32 %7, 0
  br i1 %8, label %9, label %13

9:                                                ; preds = %5
  %10 = load i64, ptr @H5E_DATATYPE_g, align 8
  %11 = load i64, ptr @H5E_CLOSEERROR_g, align 8
  %12 = tail call i32 (ptr, ptr, i32, i64, i64, ptr, ...) @H5E_printf_stack(ptr noundef nonnull @.str.2, ptr noundef nonnull @__func__.H5T__close_cb, i32 noundef 1883, i64 noundef %10, i64 noundef %11, ptr noundef nonnull @.str.326) #17
  br label %29

13:                                               ; preds = %5
  %14 = load ptr, ptr %3, align 8
  %15 = tail call i32 @H5VL_free_object(ptr noundef %14) #17
  %16 = icmp slt i32 %15, 0
  br i1 %16, label %17, label %21

17:                                               ; preds = %13
  %18 = load i64, ptr @H5E_ATTR_g, align 8
  %19 = load i64, ptr @H5E_CANTDEC_g, align 8
  %20 = tail call i32 (ptr, ptr, i32, i64, i64, ptr, ...) @H5E_printf_stack(ptr noundef nonnull @.str.2, ptr noundef nonnull @__func__.H5T__close_cb, i32 noundef 1887, i64 noundef %18, i64 noundef %19, ptr noundef nonnull @.str.327) #17
  br label %29

21:                                               ; preds = %13
  store ptr null, ptr %3, align 8
  br label %22

22:                                               ; preds = %21, %2
  %23 = tail call i32 @H5T_close(ptr noundef nonnull %0)
  %24 = icmp slt i32 %23, 0
  br i1 %24, label %25, label %29

25:                                               ; preds = %22
  %26 = load i64, ptr @H5E_DATATYPE_g, align 8
  %27 = load i64, ptr @H5E_CLOSEERROR_g, align 8
  %28 = tail call i32 (ptr, ptr, i32, i64, i64, ptr, ...) @H5E_printf_stack(ptr noundef nonnull @.str.2, ptr noundef nonnull @__func__.H5T__close_cb, i32 noundef 1893, i64 noundef %26, i64 noundef %27, ptr noundef nonnull @.str.326) #17
  br label %29

29:                                               ; preds = %22, %25, %17, %9
  %.0 = phi i32 [ -1, %9 ], [ -1, %17 ], [ -1, %25 ], [ 0, %22 ]
  ret i32 %.0
}